target datalayout = "e-m:e-p270:32:32-p271:32:32-p272:64:64-i64:64-i128:128-f80:128-n8:16:32:64-S128"
target triple = "x86_64-pc-linux-gnu"

@.str.75 = private unnamed_addr constant [20 x i8] c"vkDestroySurfaceKHR\00", align 1

; Function Attrs: nounwind uwtable
define hidden void @SDL_Vulkan_DestroySurface_Internal(ptr noundef %0, ptr noundef %1, ptr noundef %2, ptr noundef %3) #0 {
  %5 = alloca ptr, align 8
  %6 = alloca ptr, align 8
  %7 = alloca ptr, align 8
  %8 = alloca ptr, align 8
  %9 = alloca ptr, align 8
  %10 = alloca ptr, align 8
  store ptr %0, ptr %5, align 8
  store ptr %1, ptr %6, align 8
  store ptr %2, ptr %7, align 8
  store ptr %3, ptr %8, align 8
  call void @llvm.lifetime.start.p0(i64 8, ptr %9) #6
  %11 = load ptr, ptr %5, align 8
  store ptr %11, ptr %9, align 8
  call void @llvm.lifetime.start.p0(i64 8, ptr %10) #6
  %12 = load ptr, ptr %9, align 8
  %13 = load ptr, ptr %6, align 8
  %14 = call ptr %12(ptr noundef %13, ptr noundef @.str.75)
  store ptr %14, ptr %10, align 8
  %15 = load ptr, ptr %10, align 8
  %16 = icmp ne ptr %15, null
  br i1 %16, label %17, label %22

17:                                               ; preds = %4
  %18 = load ptr, ptr %10, align 8
  %19 = load ptr, ptr %6, align 8
  %20 = load ptr, ptr %7, align 8
  %21 = load ptr, ptr %8, align 8
  call void %18(ptr noundef %19, ptr noundef %20, ptr noundef %21)
  br label %22

22:                                               ; preds = %17, %4
  call void @llvm.lifetime.end.p0(i64 8, ptr %10) #6
  call void @llvm.lifetime.end.p0(i64 8, ptr %9) #6
  ret void
}