; Function Attrs: nounwind uwtable
define hidden void @SDL_Vulkan_DestroySurface_Internal(ptr noundef readonly captures(none) %0, ptr noundef %1, ptr noundef %2, ptr noundef %3) local_unnamed_addr #1 {
  %5 = tail call ptr %0(ptr noundef %1, ptr noundef nonnull @.str.75) #7
  %.not = icmp eq ptr %5, null
  br i1 %.not, label %7, label %6

6:                                                ; preds = %4
  tail call void %5(ptr noundef %1, ptr noundef %2, ptr noundef %3) #7
  br label %7

7:                                                ; preds = %6, %4
  ret void
}